target datalayout = "e-m:e-p270:32:32-p271:32:32-p272:64:64-i64:64-i128:128-f80:128-n8:16:32:64-S128"
target triple = "x86_64-unknown-linux-gnu"

%"class.std::__cxx11::basic_string" = type { %"struct.std::__cxx11::basic_string<char>::_Alloc_hider", i64, %union.anon }
%"struct.std::__cxx11::basic_string<char>::_Alloc_hider" = type { ptr }
%union.anon = type { i64, [8 x i8] }
%"class.__gnu_cxx::__normal_iterator.88" = type { ptr }
%class.anon = type { i8 }

; Function Attrs: mustprogress nounwind uwtable
define linkonce_odr noundef nonnull align 8 dereferenceable(8) ptr @_ZNK9__gnu_cxx17__normal_iteratorIPcNSt7__cxx1112basic_stringIcSt11char_traitsIcESaIcEEEE4baseEv(ptr noundef nonnull align 8 dereferenceable(8) %this) #0 comdat align 2 {
entry:
  %this.addr = alloca ptr, align 8
  store ptr %this, ptr %this.addr, align 8
  %this1 = load ptr, ptr %this.addr, align 8
  %_M_current = getelementptr inbounds %"class.__gnu_cxx::__normal_iterator.88", ptr %this1, i32 0, i32 0
  ret ptr %_M_current
}

; Function Attrs: mustprogress nounwind uwtable
define linkonce_odr noundef nonnull align 8 dereferenceable(8) ptr @_ZN9__gnu_cxx17__normal_iteratorIPcNSt7__cxx1112basic_stringIcSt11char_traitsIcESaIcEEEEppEv(ptr noundef nonnull align 8 dereferenceable(8) %this) #0 comdat align 2 {
entry:
  %this.addr = alloca ptr, align 8
  store ptr %this, ptr %this.addr, align 8
  %this1 = load ptr, ptr %this.addr, align 8
  %_M_current = getelementptr inbounds %"class.__gnu_cxx::__normal_iterator.88", ptr %this1, i32 0, i32 0
  %0 = load ptr, ptr %_M_current, align 8
  %incdec.ptr = getelementptr inbounds i8, ptr %0, i32 1
  store ptr %incdec.ptr, ptr %_M_current, align 8
  ret ptr %this1
}

; Function Attrs: mustprogress nounwind uwtable
define linkonce_odr hidden noundef signext i8 @_ZZ18ai_str_toprintableRKNSt7__cxx1112basic_stringIcSt11char_traitsIcESaIcEEEcENKUlhE_clEh(ptr noundef nonnull align 1 dereferenceable(1) %this, i8 noundef zeroext %c) #0 comdat align 2 {
entry:
  %this.addr = alloca ptr, align 8
  %c.addr = alloca i8, align 1
  store ptr %this, ptr %this.addr, align 8
  store i8 %c, ptr %c.addr, align 1
  %this1 = load ptr, ptr %this.addr, align 8
  %0 = load i8, ptr %c.addr, align 1
  %conv = zext i8 %0 to i32
  %call = call i32 @isprint(i32 noundef %conv) #19
  %tobool = icmp ne i32 %call, 0
  br i1 %tobool, label %cond.true, label %cond.false

cond.true:                                        ; preds = %entry
  %1 = load i8, ptr %c.addr, align 1
  br label %cond.end

cond.false:                                       ; preds = %entry
  %2 = getelementptr inbounds %class.anon, ptr %this1, i32 0, i32 0
  %3 = load i8, ptr %2, align 1
  br label %cond.end

cond.end:                                         ; preds = %cond.false, %cond.true
  %cond = phi i8 [ %1, %cond.true ], [ %3, %cond.false ]
  ret i8 %cond
}

; Function Attrs: mustprogress nounwind uwtable
define linkonce_odr noundef nonnull align 1 dereferenceable(1) ptr @_ZNK9__gnu_cxx17__normal_iteratorIPcNSt7__cxx1112basic_stringIcSt11char_traitsIcESaIcEEEEdeEv(ptr noundef nonnull align 8 dereferenceable(8) %this) #0 comdat align 2 {
entry:
  %this.addr = alloca ptr, align 8
  store ptr %this, ptr %this.addr, align 8
  %this1 = load ptr, ptr %this.addr, align 8
  %_M_current = getelementptr inbounds %"class.__gnu_cxx::__normal_iterator.88", ptr %this1, i32 0, i32 0
  %0 = load ptr, ptr %_M_current, align 8
  ret ptr %0
}

; Function Attrs: mustprogress nounwind uwtable
define linkonce_odr noundef zeroext i1 @_ZN9__gnu_cxxneIPcNSt7__cxx1112basic_stringIcSt11char_traitsIcESaIcEEEEEbRKNS_17__normal_iteratorIT_T0_EESD_(ptr noundef nonnull align 8 dereferenceable(8) %__lhs, ptr noundef nonnull align 8 dereferenceable(8) %__rhs) #0 comdat {
entry:
  %__lhs.addr = alloca ptr, align 8
  %__rhs.addr = alloca ptr, align 8
  store ptr %__lhs, ptr %__lhs.addr, align 8
  store ptr %__rhs, ptr %__rhs.addr, align 8
  %0 = load ptr, ptr %__lhs.addr, align 8
  %call = call noundef nonnull align 8 dereferenceable(8) ptr @_ZNK9__gnu_cxx17__normal_iteratorIPcNSt7__cxx1112basic_stringIcSt11char_traitsIcESaIcEEEE4baseEv(ptr noundef nonnull align 8 dereferenceable(8) %0) #5
  %1 = load ptr, ptr %call, align 8
  %2 = load ptr, ptr %__rhs.addr, align 8
  %call1 = call noundef nonnull align 8 dereferenceable(8) ptr @_ZNK9__gnu_cxx17__normal_iteratorIPcNSt7__cxx1112basic_stringIcSt11char_traitsIcESaIcEEEE4baseEv(ptr noundef nonnull align 8 dereferenceable(8) %2) #5
  %3 = load ptr, ptr %call1, align 8
  %cmp = icmp ne ptr %1, %3
  ret i1 %cmp
}

; Function Attrs: mustprogress uwtable
define linkonce_odr hidden ptr @_ZSt9transformIN9__gnu_cxx17__normal_iteratorIPcNSt7__cxx1112basic_stringIcSt11char_traitsIcESaIcEEEEES9_Z18ai_str_toprintableRKS8_cEUlhE_ET0_T_SE_SD_T1_(ptr %__first.coerce, ptr %__last.coerce, ptr %__result.coerce, i8 %__unary_op.coerce) #4 comdat {
entry:
  %retval = alloca %"class.__gnu_cxx::__normal_iterator.88", align 8
  %__first = alloca %"class.__gnu_cxx::__normal_iterator.88", align 8
  %__last = alloca %"class.__gnu_cxx::__normal_iterator.88", align 8
  %__result = alloca %"class.__gnu_cxx::__normal_iterator.88", align 8
  %__unary_op = alloca %class.anon, align 1
  %coerce.dive = getelementptr inbounds %"class.__gnu_cxx::__normal_iterator.88", ptr %__first, i32 0, i32 0
  store ptr %__first.coerce, ptr %coerce.dive, align 8
  %coerce.dive1 = getelementptr inbounds %"class.__gnu_cxx::__normal_iterator.88", ptr %__last, i32 0, i32 0
  store ptr %__last.coerce, ptr %coerce.dive1, align 8
  %coerce.dive2 = getelementptr inbounds %"class.__gnu_cxx::__normal_iterator.88", ptr %__result, i32 0, i32 0
  store ptr %__result.coerce, ptr %coerce.dive2, align 8
  %coerce.dive3 = getelementptr inbounds %class.anon, ptr %__unary_op, i32 0, i32 0
  store i8 %__unary_op.coerce, ptr %coerce.dive3, align 1
  br label %for.cond

for.cond:                                         ; preds = %for.inc, %entry
  %call = call noundef zeroext i1 @_ZN9__gnu_cxxneIPcNSt7__cxx1112basic_stringIcSt11char_traitsIcESaIcEEEEEbRKNS_17__normal_iteratorIT_T0_EESD_(ptr noundef nonnull align 8 dereferenceable(8) %__first, ptr noundef nonnull align 8 dereferenceable(8) %__last) #5
  br i1 %call, label %for.body, label %for.end

for.body:                                         ; preds = %for.cond
  %call4 = call noundef nonnull align 1 dereferenceable(1) ptr @_ZNK9__gnu_cxx17__normal_iteratorIPcNSt7__cxx1112basic_stringIcSt11char_traitsIcESaIcEEEEdeEv(ptr noundef nonnull align 8 dereferenceable(8) %__first) #5
  %0 = load i8, ptr %call4, align 1
  %call5 = call noundef signext i8 @_ZZ18ai_str_toprintableRKNSt7__cxx1112basic_stringIcSt11char_traitsIcESaIcEEEcENKUlhE_clEh(ptr noundef nonnull align 1 dereferenceable(1) %__unary_op, i8 noundef zeroext %0)
  %call6 = call noundef nonnull align 1 dereferenceable(1) ptr @_ZNK9__gnu_cxx17__normal_iteratorIPcNSt7__cxx1112basic_stringIcSt11char_traitsIcESaIcEEEEdeEv(ptr noundef nonnull align 8 dereferenceable(8) %__result) #5
  store i8 %call5, ptr %call6, align 1
  br label %for.inc

for.inc:                                          ; preds = %for.body
  %call7 = call noundef nonnull align 8 dereferenceable(8) ptr @_ZN9__gnu_cxx17__normal_iteratorIPcNSt7__cxx1112basic_stringIcSt11char_traitsIcESaIcEEEEppEv(ptr noundef nonnull align 8 dereferenceable(8) %__first) #5
  %call8 = call noundef nonnull align 8 dereferenceable(8) ptr @_ZN9__gnu_cxx17__normal_iteratorIPcNSt7__cxx1112basic_stringIcSt11char_traitsIcESaIcEEEEppEv(ptr noundef nonnull align 8 dereferenceable(8) %__result) #5
  br label %for.cond, !llvm.loop !21

for.end:                                          ; preds = %for.cond
  call void @llvm.memcpy.p0.p0.i64(ptr align 8 %retval, ptr align 8 %__result, i64 8, i1 false)
  %coerce.dive9 = getelementptr inbounds %"class.__gnu_cxx::__normal_iterator.88", ptr %retval, i32 0, i32 0
  %1 = load ptr, ptr %coerce.dive9, align 8
  ret ptr %1
}

; Function Attrs: mustprogress uwtable
define linkonce_odr hidden void @_Z18ai_str_toprintableRKNSt7__cxx1112basic_stringIcSt11char_traitsIcESaIcEEEc(ptr noalias sret(%"class.std::__cxx11::basic_string") align 8 %agg.result, ptr noundef nonnull align 8 dereferenceable(32) %in, i8 noundef signext %placeholder) #4 comdat personality ptr @__gxx_personality_v0 {
entry:
  %result.ptr = alloca ptr, align 8
  %in.addr = alloca ptr, align 8
  %placeholder.addr = alloca i8, align 1
  %nrvo = alloca i1, align 1
  %agg.tmp = alloca %"class.__gnu_cxx::__normal_iterator.88", align 8
  %agg.tmp1 = alloca %"class.__gnu_cxx::__normal_iterator.88", align 8
  %agg.tmp4 = alloca %"class.__gnu_cxx::__normal_iterator.88", align 8
  %agg.tmp7 = alloca %class.anon, align 1
  %exn.slot = alloca ptr, align 8
  %ehselector.slot = alloca i32, align 4
  %coerce = alloca %"class.__gnu_cxx::__normal_iterator.88", align 8
  store ptr %agg.result, ptr %result.ptr, align 8
  store ptr %in, ptr %in.addr, align 8
  store i8 %placeholder, ptr %placeholder.addr, align 1
  store i1 false, ptr %nrvo, align 1
  %0 = load ptr, ptr %in.addr, align 8
  call void @_ZNSt7__cxx1112basic_stringIcSt11char_traitsIcESaIcEEC1ERKS4_(ptr noundef nonnull align 8 dereferenceable(32) %agg.result, ptr noundef nonnull align 8 dereferenceable(32) %0)
  %call = call ptr @_ZNSt7__cxx1112basic_stringIcSt11char_traitsIcESaIcEE5beginEv(ptr noundef nonnull align 8 dereferenceable(32) %agg.result) #5
  %coerce.dive = getelementptr inbounds %"class.__gnu_cxx::__normal_iterator.88", ptr %agg.tmp, i32 0, i32 0
  store ptr %call, ptr %coerce.dive, align 8
  %call2 = call ptr @_ZNSt7__cxx1112basic_stringIcSt11char_traitsIcESaIcEE3endEv(ptr noundef nonnull align 8 dereferenceable(32) %agg.result) #5
  %coerce.dive3 = getelementptr inbounds %"class.__gnu_cxx::__normal_iterator.88", ptr %agg.tmp1, i32 0, i32 0
  store ptr %call2, ptr %coerce.dive3, align 8
  %call5 = call ptr @_ZNSt7__cxx1112basic_stringIcSt11char_traitsIcESaIcEE5beginEv(ptr noundef nonnull align 8 dereferenceable(32) %agg.result) #5
  %coerce.dive6 = getelementptr inbounds %"class.__gnu_cxx::__normal_iterator.88", ptr %agg.tmp4, i32 0, i32 0
  store ptr %call5, ptr %coerce.dive6, align 8
  %1 = getelementptr inbounds %class.anon, ptr %agg.tmp7, i32 0, i32 0
  %2 = load i8, ptr %placeholder.addr, align 1
  store i8 %2, ptr %1, align 1
  %coerce.dive8 = getelementptr inbounds %"class.__gnu_cxx::__normal_iterator.88", ptr %agg.tmp, i32 0, i32 0
  %3 = load ptr, ptr %coerce.dive8, align 8
  %coerce.dive9 = getelementptr inbounds %"class.__gnu_cxx::__normal_iterator.88", ptr %agg.tmp1, i32 0, i32 0
  %4 = load ptr, ptr %coerce.dive9, align 8
  %coerce.dive10 = getelementptr inbounds %"class.__gnu_cxx::__normal_iterator.88", ptr %agg.tmp4, i32 0, i32 0
  %5 = load ptr, ptr %coerce.dive10, align 8
  %coerce.dive11 = getelementptr inbounds %class.anon, ptr %agg.tmp7, i32 0, i32 0
  %6 = load i8, ptr %coerce.dive11, align 1
  %call12 = invoke ptr @_ZSt9transformIN9__gnu_cxx17__normal_iteratorIPcNSt7__cxx1112basic_stringIcSt11char_traitsIcESaIcEEEEES9_Z18ai_str_toprintableRKS8_cEUlhE_ET0_T_SE_SD_T1_(ptr %3, ptr %4, ptr %5, i8 %6)
          to label %invoke.cont unwind label %lpad

invoke.cont:                                      ; preds = %entry
  %coerce.dive13 = getelementptr inbounds %"class.__gnu_cxx::__normal_iterator.88", ptr %coerce, i32 0, i32 0
  store ptr %call12, ptr %coerce.dive13, align 8
  store i1 true, ptr %nrvo, align 1
  %nrvo.val = load i1, ptr %nrvo, align 1
  br i1 %nrvo.val, label %nrvo.skipdtor, label %nrvo.unused

lpad:                                             ; preds = %entry
  %7 = landingpad { ptr, i32 }
          cleanup
  %8 = extractvalue { ptr, i32 } %7, 0
  store ptr %8, ptr %exn.slot, align 8
  %9 = extractvalue { ptr, i32 } %7, 1
  store i32 %9, ptr %ehselector.slot, align 4
  call void @_ZNSt7__cxx1112basic_stringIcSt11char_traitsIcESaIcEED1Ev(ptr noundef nonnull align 8 dereferenceable(32) %agg.result) #5
  br label %eh.resume

nrvo.unused:                                      ; preds = %invoke.cont
  call void @_ZNSt7__cxx1112basic_stringIcSt11char_traitsIcESaIcEED1Ev(ptr noundef nonnull align 8 dereferenceable(32) %agg.result) #5
  br label %nrvo.skipdtor

nrvo.skipdtor:                                    ; preds = %nrvo.unused, %invoke.cont
  ret void

eh.resume:                                        ; preds = %lpad
  %exn = load ptr, ptr %exn.slot, align 8
  %sel = load i32, ptr %ehselector.slot, align 4
  %lpad.val = insertvalue { ptr, i32 } poison, ptr %exn, 0
  %lpad.val14 = insertvalue { ptr, i32 } %lpad.val, i32 %sel, 1
  resume { ptr, i32 } %lpad.val14
}

; Function Attrs: mustprogress uwtable
define internal void @_ZN6Assimp7OpenGEXL19logDDLParserMessageEN10ODDLParser11LogSeverityERKNSt7__cxx1112basic_stringIcSt11char_traitsIcESaIcEEE(i32 noundef %severity, ptr noundef nonnull align 8 dereferenceable(32) %rawmsg) #4 personality ptr @__gxx_personality_v0 {
entry:
  %severity.addr = alloca i32, align 4
  %rawmsg.addr = alloca ptr, align 8
  %msg = alloca %"class.std::__cxx11::basic_string", align 8
  %exn.slot = alloca ptr, align 8
  %ehselector.slot = alloca i32, align 4
  store i32 %severity, ptr %severity.addr, align 4
  store ptr %rawmsg, ptr %rawmsg.addr, align 8
  %0 = load ptr, ptr %rawmsg.addr, align 8
  call void @_Z18ai_str_toprintableRKNSt7__cxx1112basic_stringIcSt11char_traitsIcESaIcEEEc(ptr sret(%"class.std::__cxx11::basic_string") align 8 %msg, ptr noundef nonnull align 8 dereferenceable(32) %0, i8 noundef signext 63)
  %1 = load i32, ptr %severity.addr, align 4
  switch i32 %1, label %sw.default [
    i32 0, label %sw.bb
    i32 1, label %sw.bb2
    i32 2, label %sw.bb6
    i32 3, label %sw.bb10
  ]

sw.bb:                                            ; preds = %entry
  %call = invoke noundef ptr @_ZN6Assimp13DefaultLogger3getEv()
          to label %invoke.cont unwind label %lpad

invoke.cont:                                      ; preds = %sw.bb
  invoke void @_ZN6Assimp6Logger5debugIJRNSt7__cxx1112basic_stringIcSt11char_traitsIcESaIcEEEEEEvDpOT_(ptr noundef nonnull align 8 dereferenceable(12) %call, ptr noundef nonnull align 8 dereferenceable(32) %msg)
          to label %invoke.cont1 unwind label %lpad

invoke.cont1:                                     ; preds = %invoke.cont
  br label %sw.epilog

lpad:                                             ; preds = %invoke.cont14, %sw.default, %invoke.cont11, %sw.bb10, %invoke.cont7, %sw.bb6, %invoke.cont3, %sw.bb2, %invoke.cont, %sw.bb
  %2 = landingpad { ptr, i32 }
          cleanup
  %3 = extractvalue { ptr, i32 } %2, 0
  store ptr %3, ptr %exn.slot, align 8
  %4 = extractvalue { ptr, i32 } %2, 1
  store i32 %4, ptr %ehselector.slot, align 4
  call void @_ZNSt7__cxx1112basic_stringIcSt11char_traitsIcESaIcEED1Ev(ptr noundef nonnull align 8 dereferenceable(32) %msg) #5
  br label %eh.resume

sw.bb2:                                           ; preds = %entry
  %call4 = invoke noundef ptr @_ZN6Assimp13DefaultLogger3getEv()
          to label %invoke.cont3 unwind label %lpad

invoke.cont3:                                     ; preds = %sw.bb2
  invoke void @_ZN6Assimp6Logger4infoIJRNSt7__cxx1112basic_stringIcSt11char_traitsIcESaIcEEEEEEvDpOT_(ptr noundef nonnull align 8 dereferenceable(12) %call4, ptr noundef nonnull align 8 dereferenceable(32) %msg)
          to label %invoke.cont5 unwind label %lpad

invoke.cont5:                                     ; preds = %invoke.cont3
  br label %sw.epilog

sw.bb6:                                           ; preds = %entry
  %call8 = invoke noundef ptr @_ZN6Assimp13DefaultLogger3getEv()
          to label %invoke.cont7 unwind label %lpad

invoke.cont7:                                     ; preds = %sw.bb6
  invoke void @_ZN6Assimp6Logger4warnIJRNSt7__cxx1112basic_stringIcSt11char_traitsIcESaIcEEEEEEvDpOT_(ptr noundef nonnull align 8 dereferenceable(12) %call8, ptr noundef nonnull align 8 dereferenceable(32) %msg)
          to label %invoke.cont9 unwind label %lpad

invoke.cont9:                                     ; preds = %invoke.cont7
  br label %sw.epilog

sw.bb10:                                          ; preds = %entry
  %call12 = invoke noundef ptr @_ZN6Assimp13DefaultLogger3getEv()
          to label %invoke.cont11 unwind label %lpad

invoke.cont11:                                    ; preds = %sw.bb10
  invoke void @_ZN6Assimp6Logger5errorIJRNSt7__cxx1112basic_stringIcSt11char_traitsIcESaIcEEEEEEvDpOT_(ptr noundef nonnull align 8 dereferenceable(12) %call12, ptr noundef nonnull align 8 dereferenceable(32) %msg)
          to label %invoke.cont13 unwind label %lpad

invoke.cont13:                                    ; preds = %invoke.cont11
  br label %sw.epilog

sw.default:                                       ; preds = %entry
  %call15 = invoke noundef ptr @_ZN6Assimp13DefaultLogger3getEv()
          to label %invoke.cont14 unwind label %lpad

invoke.cont14:                                    ; preds = %sw.default
  invoke void @_ZN6Assimp6Logger12verboseDebugIJRNSt7__cxx1112basic_stringIcSt11char_traitsIcESaIcEEEEEEvDpOT_(ptr noundef nonnull align 8 dereferenceable(12) %call15, ptr noundef nonnull align 8 dereferenceable(32) %msg)
          to label %invoke.cont16 unwind label %lpad

invoke.cont16:                                    ; preds = %invoke.cont14
  br label %sw.epilog

sw.epilog:                                        ; preds = %invoke.cont16, %invoke.cont13, %invoke.cont9, %invoke.cont5, %invoke.cont1
  call void @_ZNSt7__cxx1112basic_stringIcSt11char_traitsIcESaIcEED1Ev(ptr noundef nonnull align 8 dereferenceable(32) %msg) #5
  ret void

eh.resume:                                        ; preds = %lpad
  %exn = load ptr, ptr %exn.slot, align 8
  %sel = load i32, ptr %ehselector.slot, align 4
  %lpad.val = insertvalue { ptr, i32 } poison, ptr %exn, 0
  %lpad.val17 = insertvalue { ptr, i32 } %lpad.val, i32 %sel, 1
  resume { ptr, i32 } %lpad.val17
}