; Function Attrs: mustprogress uwtable
define internal void @_ZN6Assimp7OpenGEXL19logDDLParserMessageEN10ODDLParser11LogSeverityERKNSt7__cxx1112basic_stringIcSt11char_traitsIcESaIcEEE(i32 noundef %severity, ptr noundef nonnull align 8 dereferenceable(32) %rawmsg) #7 personality ptr @__gxx_personality_v0 {
entry:
  %msg = alloca %"class.std::__cxx11::basic_string", align 8
  call void @_ZNSt7__cxx1112basic_stringIcSt11char_traitsIcESaIcEEC1ERKS4_(ptr noundef nonnull align 8 dereferenceable(32) %msg, ptr noundef nonnull align 8 dereferenceable(32) %rawmsg)
  %call.i = call ptr @_ZNSt7__cxx1112basic_stringIcSt11char_traitsIcESaIcEE5beginEv(ptr noundef nonnull align 8 dereferenceable(32) %msg) #25
  %call2.i = call ptr @_ZNSt7__cxx1112basic_stringIcSt11char_traitsIcESaIcEE3endEv(ptr noundef nonnull align 8 dereferenceable(32) %msg) #25
  %call5.i = call ptr @_ZNSt7__cxx1112basic_stringIcSt11char_traitsIcESaIcEE5beginEv(ptr noundef nonnull align 8 dereferenceable(32) %msg) #25
  %cmp.i.not5.i.i = icmp eq ptr %call.i, %call2.i
  br i1 %cmp.i.not5.i.i, label %_Z18ai_str_toprintableRKNSt7__cxx1112basic_stringIcSt11char_traitsIcESaIcEEEc.exit, label %for.body.i.i

for.body.i.i:                                     ; preds = %entry, %for.body.i.i
  %__first.sroa.0.07.i.i = phi ptr [ %incdec.ptr.i.i.i, %for.body.i.i ], [ %call.i, %entry ]
  %__result.sroa.0.06.i.i = phi ptr [ %incdec.ptr.i1.i.i, %for.body.i.i ], [ %call5.i, %entry ]
  %0 = load i8, ptr %__first.sroa.0.07.i.i, align 1
  %conv.i.i.i = zext i8 %0 to i32
  %call.i.i.i = call i32 @isprint(i32 noundef %conv.i.i.i) #30
  %tobool.not.i.i.i = icmp eq i32 %call.i.i.i, 0
  %cond.i.i.i = select i1 %tobool.not.i.i.i, i8 63, i8 %0
  store i8 %cond.i.i.i, ptr %__result.sroa.0.06.i.i, align 1
  %incdec.ptr.i.i.i = getelementptr inbounds i8, ptr %__first.sroa.0.07.i.i, i64 1
  %incdec.ptr.i1.i.i = getelementptr inbounds i8, ptr %__result.sroa.0.06.i.i, i64 1
  %cmp.i.not.i.i = icmp eq ptr %incdec.ptr.i.i.i, %call2.i
  br i1 %cmp.i.not.i.i, label %_Z18ai_str_toprintableRKNSt7__cxx1112basic_stringIcSt11char_traitsIcESaIcEEEc.exit, label %for.body.i.i, !llvm.loop !9

_Z18ai_str_toprintableRKNSt7__cxx1112basic_stringIcSt11char_traitsIcESaIcEEEc.exit: ; preds = %for.body.i.i, %entry
  switch i32 %severity, label %sw.default [
    i32 0, label %sw.bb
    i32 1, label %sw.bb2
    i32 2, label %sw.bb6
    i32 3, label %sw.bb10
  ]

sw.bb:                                            ; preds = %_Z18ai_str_toprintableRKNSt7__cxx1112basic_stringIcSt11char_traitsIcESaIcEEEc.exit
  %call = invoke noundef ptr @_ZN6Assimp13DefaultLogger3getEv()
          to label %invoke.cont unwind label %lpad

invoke.cont:                                      ; preds = %sw.bb
  invoke void @_ZN6Assimp6Logger5debugIJRNSt7__cxx1112basic_stringIcSt11char_traitsIcESaIcEEEEEEvDpOT_(ptr noundef nonnull align 8 dereferenceable(12) %call, ptr noundef nonnull align 8 dereferenceable(32) %msg)
          to label %sw.epilog unwind label %lpad

lpad:                                             ; preds = %invoke.cont14, %sw.default, %invoke.cont11, %sw.bb10, %invoke.cont7, %sw.bb6, %invoke.cont3, %sw.bb2, %invoke.cont, %sw.bb
  %1 = landingpad { ptr, i32 }
          cleanup
  call void @_ZNSt7__cxx1112basic_stringIcSt11char_traitsIcESaIcEED1Ev(ptr noundef nonnull align 8 dereferenceable(32) %msg) #25
  resume { ptr, i32 } %1

sw.bb2:                                           ; preds = %_Z18ai_str_toprintableRKNSt7__cxx1112basic_stringIcSt11char_traitsIcESaIcEEEc.exit
  %call4 = invoke noundef ptr @_ZN6Assimp13DefaultLogger3getEv()
          to label %invoke.cont3 unwind label %lpad

invoke.cont3:                                     ; preds = %sw.bb2
  invoke void @_ZN6Assimp6Logger4infoIJRNSt7__cxx1112basic_stringIcSt11char_traitsIcESaIcEEEEEEvDpOT_(ptr noundef nonnull align 8 dereferenceable(12) %call4, ptr noundef nonnull align 8 dereferenceable(32) %msg)
          to label %sw.epilog unwind label %lpad

sw.bb6:                                           ; preds = %_Z18ai_str_toprintableRKNSt7__cxx1112basic_stringIcSt11char_traitsIcESaIcEEEc.exit
  %call8 = invoke noundef ptr @_ZN6Assimp13DefaultLogger3getEv()
          to label %invoke.cont7 unwind label %lpad

invoke.cont7:                                     ; preds = %sw.bb6
  invoke void @_ZN6Assimp6Logger4warnIJRNSt7__cxx1112basic_stringIcSt11char_traitsIcESaIcEEEEEEvDpOT_(ptr noundef nonnull align 8 dereferenceable(12) %call8, ptr noundef nonnull align 8 dereferenceable(32) %msg)
          to label %sw.epilog unwind label %lpad

sw.bb10:                                          ; preds = %_Z18ai_str_toprintableRKNSt7__cxx1112basic_stringIcSt11char_traitsIcESaIcEEEc.exit
  %call12 = invoke noundef ptr @_ZN6Assimp13DefaultLogger3getEv()
          to label %invoke.cont11 unwind label %lpad

invoke.cont11:                                    ; preds = %sw.bb10
  invoke void @_ZN6Assimp6Logger5errorIJRNSt7__cxx1112basic_stringIcSt11char_traitsIcESaIcEEEEEEvDpOT_(ptr noundef nonnull align 8 dereferenceable(12) %call12, ptr noundef nonnull align 8 dereferenceable(32) %msg)
          to label %sw.epilog unwind label %lpad

sw.default:                                       ; preds = %_Z18ai_str_toprintableRKNSt7__cxx1112basic_stringIcSt11char_traitsIcESaIcEEEc.exit
  %call15 = invoke noundef ptr @_ZN6Assimp13DefaultLogger3getEv()
          to label %invoke.cont14 unwind label %lpad

invoke.cont14:                                    ; preds = %sw.default
  invoke void @_ZN6Assimp6Logger12verboseDebugIJRNSt7__cxx1112basic_stringIcSt11char_traitsIcESaIcEEEEEEvDpOT_(ptr noundef nonnull align 8 dereferenceable(12) %call15, ptr noundef nonnull align 8 dereferenceable(32) %msg)
          to label %sw.epilog unwind label %lpad

sw.epilog:                                        ; preds = %invoke.cont14, %invoke.cont11, %invoke.cont7, %invoke.cont3, %invoke.cont
  call void @_ZNSt7__cxx1112basic_stringIcSt11char_traitsIcESaIcEED1Ev(ptr noundef nonnull align 8 dereferenceable(32) %msg) #25
  ret void
}